; Function Attrs: nounwind uwtable
define hidden range(i32 -1, 2) i32 @lj_gc_step(ptr noundef %0) local_unnamed_addr #0 {
  %2 = getelementptr inbounds nuw i8, ptr %0, i64 16
  %3 = load i64, ptr %2, align 8, !tbaa !30
  %4 = inttoptr i64 %3 to ptr
  %5 = getelementptr inbounds nuw i8, ptr %4, i64 184
  %6 = load volatile i32, ptr %5, align 8, !tbaa !66
  store volatile i32 -3, ptr %5, align 8, !tbaa !66
  %7 = getelementptr inbounds nuw i8, ptr %4, i64 16
  %8 = getelementptr inbounds nuw i8, ptr %4, i64 104
  %9 = load i32, ptr %8, align 8, !tbaa !67
  %10 = mul i32 %9, 10
  %11 = zext i32 %10 to i64
  %12 = icmp eq i32 %10, 0
  %spec.store.select = select i1 %12, i64 140737488355328, i64 %11
  %13 = load i64, ptr %7, align 8, !tbaa !68
  %14 = getelementptr inbounds nuw i8, ptr %4, i64 24
  %15 = load i64, ptr %14, align 8, !tbaa !41
  %16 = icmp ugt i64 %13, %15
  br i1 %16, label %17, label %22

17:                                               ; preds = %1
  %18 = sub nuw i64 %13, %15
  %19 = getelementptr inbounds nuw i8, ptr %4, i64 88
  %20 = load i64, ptr %19, align 8, !tbaa !69
  %21 = add i64 %18, %20
  store i64 %21, ptr %19, align 8, !tbaa !69
  br label %22

22:                                               ; preds = %17, %1
  %23 = getelementptr inbounds nuw i8, ptr %4, i64 33
  br label %24

24:                                               ; preds = %36, %22
  %.029 = phi i64 [ %spec.store.select, %22 ], [ %37, %36 ]
  %25 = tail call fastcc i64 @gc_onestep(ptr noundef %0)
  %26 = load i8, ptr %23, align 1, !tbaa !70
  %27 = icmp eq i8 %26, 0
  br i1 %27, label %28, label %36

28:                                               ; preds = %24
  %29 = getelementptr inbounds nuw i8, ptr %4, i64 96
  %30 = load i64, ptr %29, align 8, !tbaa !71
  %31 = udiv i64 %30, 100
  %32 = getelementptr inbounds nuw i8, ptr %4, i64 108
  %33 = load i32, ptr %32, align 4, !tbaa !72
  %34 = zext i32 %33 to i64
  %35 = mul i64 %31, %34
  br label %49

36:                                               ; preds = %24
  %37 = sub nsw i64 %.029, %25
  %38 = icmp sgt i64 %37, 0
  br i1 %38, label %24, label %39, !llvm.loop !73

39:                                               ; preds = %36
  %40 = getelementptr inbounds nuw i8, ptr %4, i64 88
  %41 = load i64, ptr %40, align 8, !tbaa !69
  %42 = icmp ult i64 %41, 1024
  br i1 %42, label %43, label %46

43:                                               ; preds = %39
  %44 = load i64, ptr %7, align 8, !tbaa !68
  %45 = add i64 %44, 1024
  br label %49

46:                                               ; preds = %39
  %47 = add i64 %41, -1024
  store i64 %47, ptr %40, align 8, !tbaa !69
  %48 = load i64, ptr %7, align 8, !tbaa !68
  br label %49

49:                                               ; preds = %46, %43, %28
  %.sink = phi i64 [ %48, %46 ], [ %45, %43 ], [ %35, %28 ]
  %.0 = phi i32 [ 0, %46 ], [ -1, %43 ], [ 1, %28 ]
  store i64 %.sink, ptr %14, align 8, !tbaa !41
  store volatile i32 %6, ptr %5, align 8, !tbaa !66
  ret i32 %.0
}